; Function Attrs: nounwind uwtable
define internal range(i32 -1, 2) i32 @H5O__attr_open_cb(ptr nocapture noundef readonly %0, ptr nocapture noundef readonly %1, i32 noundef %2, ptr nocapture readnone %3, ptr nocapture noundef %4) #0 {
  %6 = getelementptr inbounds i8, ptr %1, i64 24
  %7 = load ptr, ptr %6, align 8
  %8 = getelementptr inbounds i8, ptr %7, i64 96
  %9 = load ptr, ptr %8, align 8
  %10 = getelementptr inbounds i8, ptr %9, i64 8
  %11 = load ptr, ptr %10, align 8
  %12 = load ptr, ptr %4, align 8
  %13 = tail call i32 @strcmp(ptr noundef nonnull dereferenceable(1) %11, ptr noundef nonnull dereferenceable(1) %12) #11
  %14 = icmp eq i32 %13, 0
  br i1 %14, label %15, label %35

15:                                               ; preds = %5
  %16 = tail call ptr @H5A__copy(ptr noundef null, ptr noundef nonnull %7) #9
  %17 = getelementptr inbounds i8, ptr %4, i64 8
  store ptr %16, ptr %17, align 8
  %18 = icmp eq ptr %16, null
  br i1 %18, label %19, label %23

19:                                               ; preds = %15
  %20 = load i64, ptr @H5E_ATTR_g, align 8
  %21 = load i64, ptr @H5E_CANTCOPY_g, align 8
  %22 = tail call i32 (ptr, ptr, i32, i64, i64, ptr, ...) @H5E_printf_stack(ptr noundef nonnull @.str, ptr noundef nonnull @__func__.H5O__attr_open_cb, i32 noundef 414, i64 noundef %20, i64 noundef %21, ptr noundef nonnull @.str.54) #9
  br label %35

23:                                               ; preds = %15
  %24 = getelementptr inbounds i8, ptr %0, i64 288
  %25 = load i8, ptr %24, align 8
  %26 = icmp eq i8 %25, 1
  br i1 %26, label %31, label %27

27:                                               ; preds = %23
  %28 = getelementptr inbounds i8, ptr %0, i64 289
  %29 = load i8, ptr %28, align 1
  %30 = and i8 %29, 4
  %.not = icmp eq i8 %30, 0
  br i1 %.not, label %31, label %35

31:                                               ; preds = %27, %23
  %32 = getelementptr inbounds i8, ptr %16, i64 96
  %33 = load ptr, ptr %32, align 8
  %34 = getelementptr inbounds i8, ptr %33, i64 72
  store i32 %2, ptr %34, align 8
  br label %35

35:                                               ; preds = %27, %31, %5, %19
  %.0 = phi i32 [ -1, %19 ], [ 0, %5 ], [ 1, %31 ], [ 1, %27 ]
  ret i32 %.0
}